; Function Attrs: nounwind uwtable
define hidden ptr @_Py_subscript_generic(ptr noundef readnone captures(none) %0, ptr noundef %1) local_unnamed_addr #0 {
  %3 = alloca [2 x ptr], align 16
  %4 = tail call fastcc ptr @unpack_typevartuples(ptr noundef %1)
  %5 = tail call align 8 ptr @llvm.threadlocal.address.p0(ptr align 8 @_Py_tss_tstate)
  %6 = load ptr, ptr %5, align 8, !tbaa !28
  %7 = getelementptr inbounds nuw i8, ptr %6, i64 16
  %8 = load ptr, ptr %7, align 8, !tbaa !39
  %9 = getelementptr inbounds nuw i8, ptr %8, i64 224496
  %10 = load ptr, ptr %9, align 8, !tbaa !144
  %11 = icmp eq ptr %10, null
  br i1 %11, label %12, label %14

12:                                               ; preds = %2
  %13 = load ptr, ptr @PyExc_SystemError, align 8, !tbaa !16
  tail call void @PyErr_SetString(ptr noundef %13, ptr noundef nonnull @.str.12) #8
  br label %22

14:                                               ; preds = %2
  call void @llvm.lifetime.start.p0(i64 16, ptr nonnull %3) #8
  store ptr %10, ptr %3, align 16, !tbaa !16
  %15 = getelementptr inbounds nuw i8, ptr %3, i64 8
  store ptr %4, ptr %15, align 8, !tbaa !16
  %16 = call fastcc ptr @call_typing_func_object(ptr noundef nonnull @.str.13, ptr noundef %3, i64 noundef 2)
  %17 = load i32, ptr %4, align 8, !tbaa !27
  %.not.i = icmp sgt i32 %17, -1
  br i1 %.not.i, label %18, label %Py_DECREF.exit

18:                                               ; preds = %14
  %19 = add nsw i32 %17, -1
  store i32 %19, ptr %4, align 8, !tbaa !27
  %20 = icmp eq i32 %19, 0
  br i1 %20, label %21, label %Py_DECREF.exit

21:                                               ; preds = %18
  call void @_Py_Dealloc(ptr noundef nonnull %4) #8
  br label %Py_DECREF.exit

Py_DECREF.exit:                                   ; preds = %14, %18, %21
  call void @llvm.lifetime.end.p0(i64 16, ptr nonnull %3) #8
  br label %22

22:                                               ; preds = %Py_DECREF.exit, %12
  %.0 = phi ptr [ null, %12 ], [ %16, %Py_DECREF.exit ]
  ret ptr %.0
}